target datalayout = "e-m:e-p270:32:32-p271:32:32-p272:64:64-i64:64-i128:128-f80:128-n8:16:32:64-S128"
target triple = "x86_64-pc-linux-gnu"

%struct._lv_array_t = type { ptr, i32, i32, i32, i8 }
%struct.lv_event_list_t = type { %struct._lv_array_t, i8 }
%struct._lv_event_dsc_t = type { ptr, ptr, i32 }

; Function Attrs: nounwind uwtable
define internal void @cleanup_event_list(ptr noundef %0) #0 {
  %2 = alloca ptr, align 8
  store ptr %0, ptr %2, align 8, !tbaa !33
  %3 = load ptr, ptr %2, align 8, !tbaa !33
  %4 = getelementptr inbounds nuw %struct.lv_event_list_t, ptr %3, i32 0, i32 1
  %5 = load i8, ptr %4, align 8
  %6 = and i8 %5, 1
  %7 = icmp ne i8 %6, 0
  br i1 %7, label %8, label %9

8:                                                ; preds = %1
  br label %26

9:                                                ; preds = %1
  %10 = load ptr, ptr %2, align 8, !tbaa !33
  %11 = getelementptr inbounds nuw %struct.lv_event_list_t, ptr %10, i32 0, i32 1
  %12 = load i8, ptr %11, align 8
  %13 = lshr i8 %12, 1
  %14 = and i8 %13, 1
  %15 = zext i8 %14 to i32
  %16 = icmp eq i32 %15, 0
  br i1 %16, label %17, label %18

17:                                               ; preds = %9
  br label %26

18:                                               ; preds = %9
  %19 = load ptr, ptr %2, align 8, !tbaa !33
  %20 = getelementptr inbounds nuw %struct.lv_event_list_t, ptr %19, i32 0, i32 0
  call void @cleanup_event_list_core(ptr noundef %20)
  %21 = load ptr, ptr %2, align 8, !tbaa !33
  %22 = getelementptr inbounds nuw %struct.lv_event_list_t, ptr %21, i32 0, i32 1
  %23 = load i8, ptr %22, align 8
  %24 = and i8 %23, -3
  %25 = or i8 %24, 0
  store i8 %25, ptr %22, align 8
  br label %26

26:                                               ; preds = %18, %17, %8
  ret void
}

; Function Attrs: nounwind uwtable
define internal void @event_mark_deleting(ptr noundef %0, ptr noundef %1) #0 {
  %3 = alloca ptr, align 8
  %4 = alloca ptr, align 8
  store ptr %0, ptr %3, align 8, !tbaa !33
  store ptr %1, ptr %4, align 8, !tbaa !38
  %5 = load ptr, ptr %3, align 8, !tbaa !33
  %6 = getelementptr inbounds nuw %struct.lv_event_list_t, ptr %5, i32 0, i32 1
  %7 = load i8, ptr %6, align 8
  %8 = and i8 %7, -3
  %9 = or i8 %8, 2
  store i8 %9, ptr %6, align 8
  %10 = load ptr, ptr %4, align 8, !tbaa !38
  %11 = getelementptr inbounds nuw %struct._lv_event_dsc_t, ptr %10, i32 0, i32 2
  %12 = load i32, ptr %11, align 8, !tbaa !42
  %13 = or i32 %12, 65536
  store i32 %13, ptr %11, align 8, !tbaa !42
  ret void
}

; Function Attrs: nounwind uwtable
define internal ptr @event_array_at(ptr noundef %0, i32 noundef %1) #0 {
  %3 = alloca ptr, align 8
  %4 = alloca i32, align 4
  store ptr %0, ptr %3, align 8, !tbaa !33
  store i32 %1, ptr %4, align 4, !tbaa !37
  %5 = load ptr, ptr %3, align 8, !tbaa !33
  %6 = getelementptr inbounds nuw %struct.lv_event_list_t, ptr %5, i32 0, i32 0
  %7 = load i32, ptr %4, align 4, !tbaa !37
  %8 = call ptr @lv_array_at(ptr noundef %6, i32 noundef %7)
  ret ptr %8
}

; Function Attrs: nounwind uwtable
define internal i32 @event_array_size(ptr noundef %0) #0 {
  %2 = alloca ptr, align 8
  store ptr %0, ptr %2, align 8, !tbaa !33
  %3 = load ptr, ptr %2, align 8, !tbaa !33
  %4 = getelementptr inbounds nuw %struct.lv_event_list_t, ptr %3, i32 0, i32 0
  %5 = call i32 @lv_array_size(ptr noundef %4)
  ret i32 %5
}

; Function Attrs: nounwind uwtable
define zeroext i1 @lv_event_remove_dsc(ptr noundef %0, ptr noundef %1) #0 {
  %3 = alloca i1, align 1
  %4 = alloca ptr, align 8
  %5 = alloca ptr, align 8
  %6 = alloca i32, align 4
  %7 = alloca i32, align 4
  %8 = alloca i32, align 4
  %9 = alloca ptr, align 8
  store ptr %0, ptr %4, align 8, !tbaa !33
  store ptr %1, ptr %5, align 8, !tbaa !38
  br label %10

10:                                               ; preds = %2
  %11 = load ptr, ptr %4, align 8, !tbaa !33
  %12 = icmp ne ptr %11, null
  br i1 %12, label %17, label %13

13:                                               ; preds = %10
  br label %14

14:                                               ; preds = %13
  br label %15

15:                                               ; preds = %14
  br label %16

16:                                               ; preds = %15, %16
  br label %16

17:                                               ; preds = %10
  br label %18

18:                                               ; preds = %17
  br label %19

19:                                               ; preds = %18
  %20 = load ptr, ptr %5, align 8, !tbaa !38
  %21 = icmp ne ptr %20, null
  br i1 %21, label %26, label %22

22:                                               ; preds = %19
  br label %23

23:                                               ; preds = %22
  br label %24

24:                                               ; preds = %23
  br label %25

25:                                               ; preds = %24, %25
  br label %25

26:                                               ; preds = %19
  br label %27

27:                                               ; preds = %26
  call void @llvm.lifetime.start.p0(i64 4, ptr %6) #4
  %28 = load ptr, ptr %4, align 8, !tbaa !33
  %29 = call i32 @event_array_size(ptr noundef %28)
  store i32 %29, ptr %6, align 4, !tbaa !37
  call void @llvm.lifetime.start.p0(i64 4, ptr %7) #4
  store i32 0, ptr %7, align 4, !tbaa !37
  br label %30

30:                                               ; preds = %51, %27
  %31 = load i32, ptr %7, align 4, !tbaa !37
  %32 = load i32, ptr %6, align 4, !tbaa !37
  %33 = icmp ult i32 %31, %32
  br i1 %33, label %35, label %34

34:                                               ; preds = %30
  store i32 14, ptr %8, align 4
  br label %54

35:                                               ; preds = %30
  call void @llvm.lifetime.start.p0(i64 8, ptr %9) #4
  %36 = load ptr, ptr %4, align 8, !tbaa !33
  %37 = load i32, ptr %7, align 4, !tbaa !37
  %38 = call ptr @event_array_at(ptr noundef %36, i32 noundef %37)
  %39 = load ptr, ptr %38, align 8, !tbaa !38
  store ptr %39, ptr %9, align 8, !tbaa !38
  %40 = load ptr, ptr %9, align 8, !tbaa !38
  %41 = load ptr, ptr %5, align 8, !tbaa !38
  %42 = icmp eq ptr %40, %41
  br i1 %42, label %43, label %47

43:                                               ; preds = %35
  %44 = load ptr, ptr %4, align 8, !tbaa !33
  %45 = load ptr, ptr %9, align 8, !tbaa !38
  call void @event_mark_deleting(ptr noundef %44, ptr noundef %45)
  %46 = load ptr, ptr %4, align 8, !tbaa !33
  call void @cleanup_event_list(ptr noundef %46)
  store i1 true, ptr %3, align 1
  store i32 1, ptr %8, align 4
  br label %48

47:                                               ; preds = %35
  store i32 0, ptr %8, align 4
  br label %48

48:                                               ; preds = %47, %43
  call void @llvm.lifetime.end.p0(i64 8, ptr %9) #4
  %49 = load i32, ptr %8, align 4
  switch i32 %49, label %54 [
    i32 0, label %50
  ]

50:                                               ; preds = %48
  br label %51

51:                                               ; preds = %50
  %52 = load i32, ptr %7, align 4, !tbaa !37
  %53 = add i32 %52, 1
  store i32 %53, ptr %7, align 4, !tbaa !37
  br label %30, !llvm.loop !55

54:                                               ; preds = %48, %34
  call void @llvm.lifetime.end.p0(i64 4, ptr %7) #4
  %55 = load i32, ptr %8, align 4
  switch i32 %55, label %57 [
    i32 14, label %56
  ]

56:                                               ; preds = %54
  store i1 false, ptr %3, align 1
  store i32 1, ptr %8, align 4
  br label %57

57:                                               ; preds = %56, %54
  call void @llvm.lifetime.end.p0(i64 4, ptr %6) #4
  %58 = load i1, ptr %3, align 1
  ret i1 %58
}