; Function Attrs: nounwind uwtable
define noundef zeroext i1 @lv_event_remove_dsc(ptr noundef %0, ptr noundef readnone captures(address) %1) local_unnamed_addr #2 {
  %.not = icmp eq ptr %0, null
  br i1 %.not, label %.preheader, label %3

.preheader:                                       ; preds = %2, %.preheader
  br label %.preheader

3:                                                ; preds = %2
  %.not22 = icmp eq ptr %1, null
  br i1 %.not22, label %.preheader27, label %4

.preheader27:                                     ; preds = %3, %.preheader27
  br label %.preheader27

4:                                                ; preds = %3
  %5 = tail call i32 @lv_array_size(ptr noundef nonnull %0) #12
  %.not2430.not = icmp eq i32 %5, 0
  br i1 %.not2430.not, label %.critedge26, label %.critedge

6:                                                ; preds = %.critedge
  %7 = add nuw i32 %.01831, 1
  %exitcond.not = icmp eq i32 %7, %5
  br i1 %exitcond.not, label %.critedge26, label %.critedge, !llvm.loop !47

.critedge:                                        ; preds = %4, %6
  %.01831 = phi i32 [ %7, %6 ], [ 0, %4 ]
  %8 = tail call ptr @lv_array_at(ptr noundef nonnull %0, i32 noundef %.01831) #12
  %9 = load ptr, ptr %8, align 8, !tbaa !36
  %.not23 = icmp eq ptr %9, %1
  br i1 %.not23, label %10, label %6

10:                                               ; preds = %.critedge
  %11 = getelementptr inbounds nuw i8, ptr %0, i64 24
  %12 = load i8, ptr %11, align 8
  %13 = or i8 %12, 2
  store i8 %13, ptr %11, align 8
  %14 = getelementptr inbounds nuw i8, ptr %9, i64 16
  %15 = load i32, ptr %14, align 8, !tbaa !40
  %16 = or i32 %15, 65536
  store i32 %16, ptr %14, align 8, !tbaa !40
  %17 = load i8, ptr %11, align 8
  %18 = and i8 %17, 3
  %or.cond.not.i = icmp eq i8 %18, 2
  br i1 %or.cond.not.i, label %19, label %.critedge26

19:                                               ; preds = %10
  tail call fastcc void @cleanup_event_list_core(ptr noundef nonnull %0)
  %20 = load i8, ptr %11, align 8
  %21 = and i8 %20, -3
  store i8 %21, ptr %11, align 8
  br label %.critedge26

.critedge26:                                      ; preds = %6, %4, %19, %10
  %.not2429 = phi i1 [ true, %19 ], [ true, %10 ], [ false, %4 ], [ false, %6 ]
  ret i1 %.not2429
}